(dp1
S'Residential'
p2
I1281
sS'Poetry'
p3
I250
sS'Winter Sports'
p4
I1390
sS'Olympics'
p5
I1128
sS'Body Art & Tattoo'
p6
I947
sS'Casseroles'
p7
I451
sS'Missions & Missionary Work'
p8
I964
sS'Home Care'
p9
I1545
sS'Extreme Sports'
p10
I772
sS'Mental Illness'
p11
I454
sS'Western'
p12
I905
sS'Authors'
p13
I192
sS'Experimental Psychology'
p14
I551
sS'Mystery'
p15
I427
sS'Arctic & Antarctica'
p16
I809
sS'Military'
p17
I55
sS'Diseases & Physical Ailments'
p18
I436
sS'Reference'
p19
I34
sS'Networking & System Administration'
p20
I899
sS'Educators'
p21
I605
sS'Natural Disasters'
p22
I798
sS'Early Childhood Education'
p23
I311
sS'Diabetic & Sugar-Free'
p24
I153
sS'Business Mathematics'
p25
I1214
sS'Business & Professional Growth'
p26
I1023
sS'Conventional'
p27
I805
sS'Embroidery'
p28
I1005
sS'Mystery & Wonders'
p29
I929
sS'Violence in Society'
p30
I806
sS'Agnosticism'
p31
I567
sS'Hockey'
p32
I1503
sS'Culture'
p33
I965
sS'Fish & Seafood'
p34
I575
sS'Interior Design'
p35
I592
sS'Game'
p36
I1054
sS'Low Salt'
p37
I491
sS'Women & Business'
p38
I619
sS'Budget'
p39
I198
sS'Scandinavian'
p40
I1546
sS'GRE'
p41
I1362
sS'Crocheting'
p42
I177
sS'Internet & Web Culture'
p43
I407
sS'Time Management'
p44
I96
sS'Hair'
p45
I1164
sS'Suspense'
p46
I411
sS'Pastry'
p47
I435
sS'Homebrewing, Distilling & Wine Making'
p48
I512
sS'Apocrypha & Pseudepigrapha'
p49
I993
sS'Divorce & Separation'
p50
I1504
sS'Hospice Care'
p51
I1345
sS'Privacy'
p52
I624
sS'Spies & Politics'
p53
I1580
sS'Health'
p54
I761
sS'Piano'
p55
I1262
sS'Epic'
p56
I134
sS'Thesauruses'
p57
I736
sS'Journalists'
p58
I373
sS'Drugs'
p59
I918
sS'Administration & Management'
p60
I1242
sS'Respiratory Therapy'
p61
I1144
sS'Herbal Remedies'
p62
I112
sS'Church Leadership'
p63
I564
sS'Social Psychology & Interactions'
p64
I325
sS'Bugs & Spiders'
p65
I145
sS'Biographical'
p66
I129
sS'Vegetarian'
p67
I1309
sS'British Detectives'
p68
I237
sS'Teams'
p69
I666
sS'Hacking'
p70
I1282
sS'Painting'
p71
I1505
sS'Financial'
p72
I948
sS'Frozen Desserts'
p73
I680
sS'Colombia'
p74
I1565
sS'Allergies'
p75
I89
sS'JavaScript'
p76
I1002
sS'Globalization'
p77
I849
sS'Digital'
p78
I741
sS'Special Diet'
p79
I128
sS'Human Resources & Personnel Management'
p80
I346
sS'Messianic Judaism'
p81
I1506
sS'Cocktails & Mixed Drinks'
p82
I476
sS'Anatomy'
p83
I930
sS'Prophecy'
p84
I734
sS'Horses'
p85
I164
sS'Web Design'
p86
I531
sS'Church History'
p87
I343
sS'Nonprofit Organizations & Charities'
p88
I746
sS'By Technique'
p89
I209
sS'Photography & Video'
p90
I580
sS'Development & Growth'
p91
I1587
sS'Sexual'
p92
I637
sS'Church Growth'
p93
I1444
sS'Alphabet'
p94
I514
sS'Iraq War'
p95
I681
sS'Tips'
p96
I1044
sS'Urban'
p97
I15
sS'Screenwriting'
p98
I485
sS'Pressure Cookers'
p99
I754
sS'Short Stories'
p100
I766
sS'Judaism'
p101
I1405
sS'Pain Management'
p102
I256
sS'Hair Loss'
p103
I1507
sS'Cacti & Succulents'
p104
I704
sS'Solitaire'
p105
I1031
sS'Psychology & Counseling'
p106
I248
sS'Total Quality Management'
p107
I812
sS'India'
p108
I667
sS'Planning'
p109
I595
sS'Agriculture'
p110
I1182
sS'Humor'
p111
I12
sS'Tablesetting'
p112
I1055
sS'Scientific Instruments'
p113
I1363
sS'Grandparenting'
p114
I1243
sS'Love, Sex & Marriage'
p115
I47
sS'Riding'
p116
I285
sS'Human-Computer Interaction'
p117
I931
sS'English as a Second Language'
p118
I705
sS'Patchwork'
p119
I646
sS'Office Automation'
p120
I1566
sS'Exercises'
p121
I1445
sS'Pies'
p122
I307
sS'Vocational Guidance'
p123
I1364
sS'Word'
p124
I581
sS'Video Production'
p125
I1365
sS'Dermatology'
p126
I1508
sS'Iran'
p127
I1346
sS'Massage'
p128
I571
sS'Software Development'
p129
I1190
sS'Vocabulary & Spelling'
p130
I1598
sS'National'
p131
I1183
sS'Foreign Language Dictionaries & Thesauruses'
p132
I568
sS'Assyria, Babylonia & Sumer'
p133
I911
sS'Stress Management'
p134
I217
sS'Individual Photographers'
p135
I1391
sS'U.S. Presidents'
p136
I1310
sS'Counting'
p137
I935
sS'Depression'
p138
I107
sS'Sports Medicine'
p139
I1112
sS'Sustainability & Green Design'
p140
I912
sS'Quick Workouts'
p141
I795
sS'Buddhism'
p142
I372
sS'Ancient, Classical & Medieval'
p143
I994
sS'Naturopathy'
p144
I356
sS'Family Relationships'
p145
I227
sS'Perennials'
p146
I1509
sS'Exercise & Fitness'
p147
I119
sS'Cozy'
p148
I187
sS'Roman Catholicism'
p149
I1510
sS'Learning Disabled'
p150
I688
sS'Twelve-Step Programs'
p151
I886
sS'Physiology'
p152
I1581
sS'Genealogy'
p153
I922
sS'Olympic Games'
p154
I1330
sS'Law Enforcement'
p155
I510
sS'Decorative Arts & Design'
p156
I998
sS'Spelling'
p157
I1263
sS'Games & Strategy Guides'
p158
I1197
sS'English, Scottish & Welsh'
p159
I1019
sS'Sex'
p160
I235
sS'Genetically Engineered Food'
p161
I1244
sS'Language Studies'
p162
I997
sS'Parenting & Families'
p163
I158
sS'Retirement Planning'
p164
I481
sS'Video & Electronic'
p165
I577
sS'Coaching'
p166
I783
sS'Home Based'
p167
I101
sS'Angels'
p168
I375
sS'Pictorials'
p169
I1406
sS'Christian'
p170
I71
sS'Success'
p171
I215
sS'Bibles'
p172
I49
sS'Language Experience Approach'
p173
I854
sS'Care & Restoration'
p174
I1547
sS'Parenting'
p175
I143
sS'Mormonism'
p176
I176
sS'Orthodoxy'
p177
I900
sS'Marine Engineering'
p178
I1329
sS'Bookkeeping'
p179
I1056
sS'Minecraft'
p180
I656
sS'Pain Medicine'
p181
I1407
sS'Special Education'
p182
I1292
sS'Codependency'
p183
I441
sS'Jokes & Riddles'
p184
I120
sS'Decorative Arts'
p185
I505
sS'Pregnancy & Childbirth'
p186
I292
sS'Gymnastics'
p187
I1366
sS'Explore the World'
p188
I709
sS'Child Advocacy'
p189
I1511
sS'Crime & Criminals'
p190
I183
sS'Animal Rights'
p191
I1113
sS'European'
p192
I839
sS'Fish & Sharks'
p193
I1129
sS'Knitting'
p194
I329
sS'Records'
p195
I887
sS'Environmentalists & Naturalists'
p196
I1447
sS'Furniture'
p197
I1130
sS'Budget Travel'
p198
I457
sS'Windows Server'
p199
I844
sS'Metaphysical'
p200
I68
sS'Mood Disorders'
p201
I363
sS'Road Travel'
p202
I360
sS'Cambodia'
p203
I1548
sS'Swimming'
p204
I1071
sS'Ecology'
p205
I1448
sS'Mediterranean'
p206
I223
sS'Diet & Nutrition'
p207
I826
sS'Christianity'
p208
I593
sS'Anthologies'
p209
I33
sS'Flower Arranging'
p210
I1102
sS'Android'
p211
I1293
sS'Sustainable Living'
p212
I276
sS'Alcoholism'
p213
I246
sS'Gender & Sexuality'
p214
I928
sS'Biology'
p215
I936
sS'Other Religious Fiction'
p216
I1058
sS'Horror'
p217
I10
sS'Utilities'
p218
I1184
sS'Lotteries'
p219
I810
sS'Gothic & Romantic'
p220
I320
sS'Australian & Oceanian'
p221
I228
sS'Baby Animals'
p222
I218
sS'Baking'
p223
I154
sS'Brain Cancer'
p224
I1294
sS'Health, Fitness & Dieting'
p225
I63
sS'Communication & Media Studies'
p226
I665
sS'Industrial & Product Design'
p227
I1145
sS'Motherhood'
p228
I315
sS'Paranormal & Urban'
p229
I614
sS'Friendship'
p230
I188
sS'Firearms & Weapons'
p231
I1481
sS'Cruises'
p232
I1132
sS'Dance'
p233
I336
sS'Hunting & Fishing'
p234
I1279
sS'British & Irish'
p235
I67
sS'Bulbs'
p236
I1367
sS'Reading & Writing'
p237
I1380
sS'Electricity'
p238
I1422
sS'Bahamas'
p239
I1246
sS'Heart Healthy'
p240
I241
sS'Holidays'
p241
I25
sS'Outdoor & Recreational Areas'
p242
I609
sS'Low Cholesterol'
p243
I291
sS'Vocabulary'
p244
I1264
sS'Sewing'
p245
I498
sS'Epidemiology'
p246
I1368
sS'Non-Vegan Vegetarian'
p247
I369
sS'Flowers'
p248
I1060
sS'Christian Books & Bibles'
p249
I194
sS'Science & Religion'
p250
I729
sS'Screenplays'
p251
I979
sS'Elections'
p252
I282
sS'Intermediate Readers'
p253
I867
sS'Animal Husbandry'
p254
I1133
sS'Voice'
p255
I847
sS'Environmental Economics'
p256
I635
sS'Cognitive Psychology'
p257
I638
sS'History & Theory'
p258
I755
sS'Risk Management'
p259
I1216
sS'Schizophrenia'
p260
I1482
sS'Thyroid Conditions'
p261
I1467
sS'Cooking Methods'
p262
I582
sS'Metal Work'
p263
I1512
sS'Emergency Medical Services'
p264
I1265
sS'Assessment'
p265
I908
sS'Historical Study & Educational Resources'
p266
I622
sS'Cars & Trucks'
p267
I623
sS'Soccer'
p268
I983
sS'Foreign Exchange'
p269
I449
sS'Python'
p270
I1513
sS'Graphic Novels'
p271
I376
sS'Handbooks & Manuals'
p272
I1226
sS'Dinosaurs'
p273
I148
sS'Zimbabwe'
p274
I1146
sS'Love Poems'
p275
I488
sS'Search Engine Optimization'
p276
I1024
sS'Collections, Catalogs & Exhibitions'
p277
I1185
sS'Gnosticism'
p278
I1266
sS'Mariology'
p279
I829
sS'Earth Sciences'
p280
I868
sS'Space Opera'
p281
I1198
sS'Job Hunting'
p282
I126
sS'Values'
p283
I268
sS'Homeopathy'
p284
I397
sS'Manga'
p285
I612
sS'Civil Rights & Liberties'
p286
I937
sS'Expeditions & Discoveries'
p287
I526
sS'Dutch Ovens'
p288
I913
sS'History & Culture'
p289
I890
sS'Astrology'
p290
I362
sS'Feminist Theory'
p291
I1045
sS'Garden Design'
p292
I370
sS'Crime'
p293
I1089
sS'Mid Atlantic'
p294
I1012
sS'Pets'
p295
I304
sS'Gay'
p296
I11
sS'Social Philosophy'
p297
I1061
sS'Censorship'
p298
I1408
sS'Calvinist'
p299
I932
sS'Social Issues'
p300
I556
sS'Greenhouses'
p301
I620
sS'Hotels & Inns'
p302
I1247
sS'Science, Nature & How It Works'
p303
I1090
sS'Wine'
p304
I756
sS'Oncology'
p305
I1567
sS'Art'
p306
I823
sS'Robotics'
p307
I869
sS'Science & Math'
p308
I859
sS'Teenagers'
p309
I572
sS'Microwave Cooking'
p310
I578
sS'Frames'
p311
I1549
sS'Regional Canada'
p312
I1248
sS'Human Rights'
p313
I973
sS'Anxiety Disorders'
p314
I269
sS'New Experiences'
p315
I424
sS'Marine Life'
p316
I190
sS'Aromatherapy'
p317
I106
sS'Beer'
p318
I357
sS'Conservation'
p319
I1046
sS'Landmarks & Monuments'
p320
I1424
sS'Business & Professional'
p321
I283
sS'Book of Common Prayer'
p322
I778
sS'Repair & Maintenance'
p323
I1392
sS'Poker'
p324
I1047
sS'Quran'
p325
I767
sS'Entomology'
p326
I1173
sS'Family Health'
p327
I1514
sS'Composers & Musicians'
p328
I539
sS'School'
p329
I537
sS'Environmental Science'
p330
I538
sS'Customer Service'
p331
I1037
sS'Darkroom & Processing'
p332
I1307
sS'Mortgages'
p333
I1217
sS'Youth Ministry'
p334
I750
sS'Reference & Interpretation'
p335
I1311
sS'Mennonite'
p336
I1331
sS'Evidence'
p337
I876
sS'Tai Chi & Qi Gong'
p338
I1349
sS'Pregnancy'
p339
I985
sS'Birds'
p340
I136
sS'Family Travel'
p341
I647
sS'Experiments & Projects'
p342
I1115
sS'Scotland'
p343
I1332
sS'Environment'
p344
I995
sS'Appomattox'
p345
I1425
sS'Stepparenting & Blended Families'
p346
I650
sS'Civilization & Culture'
p347
I949
sS'Constitutions'
p348
I720
sS'Existentialism'
p349
I1369
sS'Flowers & Plants'
p350
I1550
sS'Illustration'
p351
I685
sS'Parent & Adult Child'
p352
I1250
sS'Bread'
p353
I205
sS'Intellectual Property'
p354
I1409
sS'Theology'
p355
I234
sS'Mass Transit'
p356
I1551
sS'OS X'
p357
I1134
sS'Neuroscience'
p358
I1449
sS'Peer Pressure'
p359
I1137
sS'African American'
p360
I64
sS'Textiles & Costume'
p361
I1515
sS'Digital Photography'
p362
I231
sS'Culinary'
p363
I503
sS'Engineering'
p364
I784
sS'Hymns'
p365
I726
sS'Historiography'
p366
I1072
sS'Parodies'
p367
I88
sS'Introduction'
p368
I193
sS'Manners'
p369
I314
sS'Espionage'
p370
I475
sS'Criminal Procedure'
p371
I1091
sS'Asian American'
p372
I381
sS'Garnishes'
p373
I1032
sS'Fortune Telling'
p374
I697
sS'Scrabble'
p375
I796
sS'Ceramics'
p376
I1348
sS'Love & Romance'
p377
I16
sS'Kitchen Appliances'
p378
I691
sS'Philosophy & Social Aspects'
p379
I966
sS'Candlemaking'
p380
I195
sS'Skin Ailments'
p381
I469
sS'Diets & Nutrition'
p382
I1199
sS'Boats & Ships'
p383
I1151
sS'Pets & Animal Care'
p384
I323
sS'World War II'
p385
I161
sS'Witchcraft'
p386
I1462
sS'Color'
p387
I682
sS'Reference & Collections'
p388
I757
sS'eBay'
p389
I909
sS'Quaker'
p390
I1450
sS'Emigration & Immigration'
p391
I1249
sS'Self Help'
p392
I156
sS'Nonfiction'
p393
I1267
sS'Hearing Problems'
p394
I1062
sS'Artificial Intelligence'
p395
I1517
sS'Nuclear Physics'
p396
I901
sS'Wheat Free'
p397
I1295
sS'Dungeons & Dragons'
p398
I1568
sS'Digital Media Management'
p399
I732
sS'Disaster Relief'
p400
I266
sS'Organized Crime'
p401
I251
sS'Atlases'
p402
I737
sS'Academic Development'
p403
I1296
sS'Entrepreneurship'
p404
I46
sS'Science Fiction'
p405
I44
sS'Sports & Entertainment'
p406
I1200
sS'Lighting'
p407
I452
sS'Blood Type Diets'
p408
I894
sS'Drafting & Presentation'
p409
I1370
sS'Atlanta'
p410
I1518
sS'Thesauri'
p411
I1025
sS'Bible Study'
p412
I302
sS'Multicultural'
p413
I364
sS'Runaways'
p414
I879
sS'Domestic Life'
p415
I37
sS'Personal Growth'
p416
I212
sS'Sense & Sensation'
p417
I545
sS'Global'
p418
I1063
sS'Learning Disorders'
p419
I807
sS'Online Trading'
p420
I175
sS'Urban Life'
p421
I20
sS'Prophets'
p422
I1519
sS'Governmental'
p423
I1218
sS'Old Testament'
p424
I383
sS'Automotive'
p425
I714
sS'Appreciation'
p426
I1312
sS'Non-religious'
p427
I1219
sS'Mysteries & Detectives'
p428
I196
sS'English'
p429
I1186
sS'Inner Child'
p430
I598
sS'Railroads'
p431
I1073
sS'Reading & Phonics'
p432
I511
sS'Home Improvement & Design'
p433
I1483
sS'Juggling'
p434
I1152
sS'Ghosts'
p435
I21
sS'Technology'
p436
I1520
sS'Maine'
p437
I1410
sS'Talmud'
p438
I1426
sS'Abolition'
p439
I1521
sS'Lawyers & Judges'
p440
I1569
sS'Catholicism'
p441
I150
sS'Technique'
p442
I1165
sS'Consumer Behavior'
p443
I648
sS'Environmental Policy'
p444
I1116
sS'Rituals & Practice'
p445
I1033
sS'Conceptual'
p446
I1591
sS'Mammals'
p447
I264
sS'Printmaking'
p448
I1003
sS'Royalty'
p449
I430
sS'Aerospace'
p450
I785
sS'Designers'
p451
I1427
sS'Public Relations'
p452
I797
sS"Children's"
p453
I860
sS'Popular Economics'
p454
I1428
sS'Quotations'
p455
I508
sS'Orchids'
p456
I758
sS'Family'
p457
I294
sS'Epilepsy'
p458
I1268
sS'Wrestling'
p459
I532
sS'Personal Finance'
p460
I109
sS'Pacific'
p461
I1135
sS'Post-traumatic Stress Disorder'
p462
I954
sS'Comparative'
p463
I1166
sS'Children'
p464
I1220
sS'Jurisprudence'
p465
I1117
sS'Biscuits, Muffins & Scones'
p466
I127
sS'Education Theory'
p467
I296
sS'Instruction & Study'
p468
I1064
sS'Applique'
p469
I1201
sS'Pizza'
p470
I561
sS'default_cat'
p471
I0
sS'Marketing'
p472
I105
sS'Philosophers'
p473
I814
sS'Fruit'
p474
I763
sS'Architectural'
p475
I1283
sS'Gaia'
p476
I906
sS'Heist'
p477
I1582
sS'Psychological Thrillers'
p478
I500
sS'Medical Books'
p479
I961
sS'Comics & Graphic Novels'
p480
I225
sS'Pictorial'
p481
I1371
sS'Ukuleles'
p482
I999
sS'Insurance Law'
p483
I1118
sS'Presidents & Heads of State'
p484
I321
sS'Islam'
p485
I1026
sS'Fisheries & Aquaculture'
p486
I1393
sS'Hunting'
p487
I923
sS'Stagecraft'
p488
I870
sS'Genetic'
p489
I856
sS'Internet, Groupware, & Telecommunications'
p490
I393
sS'Acupuncture & Acupressure'
p491
I385
sS'Bolivia'
p492
I1136
sS'Mathematical & Statistical'
p493
I1552
sS'Jury'
p494
I1202
sS'Movie Tie-Ins'
p495
I116
sS'Health Law'
p496
I1522
sS'Internet & Education'
p497
I1350
sS'Graffiti & Street Art'
p498
I974
sS'World'
p499
I639
sS'Masonry'
p500
I1570
sS'Semantics'
p501
I1451
sS'World War I'
p502
I367
sS'Word Lists'
p503
I1284
sS'Wildlife'
p504
I692
sS'Turtles'
p505
I1038
sS'Erotic Photography'
p506
I668
sS'Logic & Language'
p507
I779
sS'Greek & Roman'
p508
I489
sS'Rome'
p509
I455
sS'Online Searching'
p510
I365
sS'South Beach Diet'
p511
I1333
sS'Study & Teaching'
p512
I880
sS'Industries & Professions'
p513
I1571
sS'Civil War'
p514
I166
sS'Studying & Workbooks'
p515
I790
sS'Musicals'
p516
I1553
sS'Mobile Phones, Tablets & E-Readers'
p517
I85
sS'Mixed Media'
p518
I1372
sS'Divination'
p519
I1078
sS'Ethics & Morality'
p520
I388
sS'Television'
p521
I986
sS'Legal'
p522
I733
sS'Ducks & Other Waterfowl'
p523
I189
sS'Lace & Tatting'
p524
I1065
sS'Business & Careers'
p525
I591
sS'Rice Cookers'
p526
I518
sS'Coffee & Tea'
p527
I284
sS'Planes & Aviation'
p528
I830
sS'Multigenerational'
p529
I808
sS'Geriatrics'
p530
I1297
sS'Astrophysics & Space Science'
p531
I791
sS'Ecosystems'
p532
I1107
sS'Commerce'
p533
I715
sS'Theater'
p534
I1228
sS'Weight Training'
p535
I273
sS'Nutrition'
p536
I171
sS'Depositions'
p537
I1351
sS'Book Design'
p538
I111
sS'Security'
p539
I786
sS'Options'
p540
I361
sS'Etiquette'
p541
I643
sS'Walking'
p542
I768
sS'South Africa'
p543
I967
sS'Money'
p544
I1313
sS'Teen & Young Adult'
p545
I59
sS'Craps'
p546
I1013
sS'Endangered Species'
p547
I738
sS'Lawyers & Criminals'
p548
I492
sS'Foreign Language Learning'
p549
I1411
sS'By Region'
p550
I1412
sS'Health & Stress'
p551
I1373
sS'Forensic Psychology'
p552
I943
sS'Anger Management'
p553
I800
sS'Asia'
p554
I674
sS'Stenciling'
p555
I1429
sS'Medicine'
p556
I873
sS'Buenos Aires'
p557
I1452
sS'Regency'
p558
I1103
sS'Vietnamese'
p559
I1352
sS'Physical Impairments'
p560
I845
sS'New England'
p561
I219
sS'Commercial'
p562
I673
sS'Utilitarianism'
p563
I1592
sS'Inflation'
p564
I939
sS'Slow Cookers'
p565
I60
sS'Hispanic'
p566
I316
sS'History'
p567
I108
sS'Consulting'
p568
I602
sS'Endocrinology & Metabolism'
p569
I1187
sS'Criminal Law'
p570
I1039
sS'ACT (American College Tests)'
p571
I1453
sS'Crafts, Hobbies & Home'
p572
I247
sS'Science & Technology'
p573
I871
sS'Reading Skills'
p574
I1554
sS'Japanese'
p575
I924
sS'Environmentalism'
p576
I955
sS'Etymology'
p577
I1523
sS'Blenders'
p578
I792
sS'Computers & Technology'
p579
I146
sS"St. Patrick's Day"
p580
I1524
sS'Plants & Animals'
p581
I442
sS'Jewish'
p582
I303
sS'Watercolor'
p583
I1092
sS'Herbs'
p584
I437
sS'Earthquakes & Volcanoes'
p585
I603
sS'Frogs & Toads'
p586
I611
sS'Poultry'
p587
I324
sS"Driver's Education"
p588
I1454
sS'Electrical Systems'
p589
I1555
sS'Butterflies'
p590
I1229
sS'Cats, Dogs & Animals'
p591
I178
sS'Tourist Destinations & Museums'
p592
I840
sS'Stories In Verse'
p593
I533
sS'Independence Day'
p594
I1455
sS'Sacred Writings'
p595
I1048
sS'Accounting'
p596
I61
sS'Soul Food'
p597
I850
sS'Public Health'
p598
I1525
sS'Self-Help'
p599
I272
sS'Political'
p600
I45
sS'Research'
p601
I330
sS'African-American & Black'
p602
I848
sS'Soups & Stews'
p603
I137
sS'Diet Therapy'
p604
I1251
sS'Aerobics'
p605
I347
sS'Mystery, Thriller & Suspense'
p606
I79
sS'Boys & Men'
p607
I391
sS'Fascism'
p608
I351
sS'Comic Strips'
p609
I278
sS'Leadership'
p610
I169
sS'Solar'
p611
I1203
sS'Colonial'
p612
I1430
sS'Applied'
p613
I1269
sS'Native American Studies'
p614
I1108
sS'Cajun & Creole'
p615
I861
sS'Nursery Rhymes'
p616
I450
sS'Violence'
p617
I752
sS'Social Skills'
p618
I1431
sS'Anxieties & Phobias'
p619
I261
sS'Radio Operation'
p620
I944
sS'Guides & Reviews'
p621
I358
sS'Continental European'
p622
I334
sS'Personal Transformation'
p623
I65
sS'Jesus, the Gospels & Acts'
p624
I546
sS'Numerology'
p625
I1079
sS'Patent, Trademark & Copyright'
p626
I1285
sS'Hip & Thigh Workouts'
p627
I1433
sS'E-Commerce'
p628
I1175
sS'Education'
p629
I263
sS'Criminology'
p630
I1204
sS'Professional Cooking'
p631
I1138
sS'Triathlon'
p632
I1298
sS'Funding'
p633
I542
sS'Sauces & Toppings'
p634
I631
sS'Management Science'
p635
I1014
sS'Papercrafts'
p636
I398
sS"Autism & Asperger's Syndrome"
p637
I1314
sS'Injuries & Rehabilitation'
p638
I1020
sS'Web Browsers'
p639
I1153
sS'Pasta & Noodles'
p640
I432
sS'Television Performers'
p641
I1188
sS'Self-Help & Psychology'
p642
I583
sS'Phonetics & Phonics'
p643
I1413
sS'Thai'
p644
I687
sS'Child Abuse'
p645
I206
sS'Immunology'
p646
I1484
sS'Windows OS'
p647
I660
sS'Atheism'
p648
I474
sS"Buyers' Guides"
p649
I1334
sS"Noah's Ark"
p650
I1093
sS'Prehistory'
p651
I769
sS'Excursion Guides'
p652
I293
sS'U. S. Presidents & First Ladies'
p653
I1353
sS'Consumer Guides'
p654
I211
sS'Gay & Lesbian'
p655
I1015
sS'Genetics'
p656
I902
sS'Medical Assistants'
p657
I1343
sS'Divorce'
p658
I160
sS'Travel'
p659
I445
sS'Large Quantities'
p660
I565
sS'Spiritual Growth'
p661
I157
sS'Medieval'
p662
I331
sS'Geology'
p663
I1556
sS'Negotiating'
p664
I730
sS'Puzzles'
p665
I172
sS'Reptiles & Amphibians'
p666
I249
sS'Cakes'
p667
I102
sS'How-to & Home Improvements'
p668
I706
sS'Soap Making'
p669
I1004
sS'Introductory & Beginning'
p670
I482
sS'Theories of Humor'
p671
I654
sS'Economic History'
p672
I831
sS'Spiritual'
p673
I573
sS'Educational Psychology'
p674
I678
sS'Low Fat'
p675
I144
sS'Colors'
p676
I1593
sS'Certification & Development'
p677
I562
sS'Basketball'
p678
I1252
sS'Water Sports'
p679
I1230
sS'Tennis'
p680
I1557
sS'Sufism'
p681
I1119
sS'Beauty, Grooming, & Style'
p682
I117
sS'Grammar'
p683
I747
sS'Foxes & Wolves'
p684
I271
sS'Jazz'
p685
I1572
sS'Systematic'
p686
I1354
sS'1900s'
p687
I956
sS'Game Theory'
p688
I1485
sS'Temperate'
p689
I1315
sS'Electrical & Electronics'
p690
I1456
sS'Do-It-Yourself'
p691
I267
sS'Consolidation & Merger'
p692
I1374
sS'Barcelona'
p693
I1432
sS'Zoology'
p694
I773
sS'Mental & Spiritual Healing'
p695
I509
sS'Beadwork'
p696
I501
sS'Physics'
p697
I1375
sS'Trigonometry'
p698
I1066
sS'Recording & Sound'
p699
I1316
sS'Cheese & Dairy'
p700
I1080
sS'Lice'
p701
I1253
sS'Service'
p702
I1176
sS'Boxing'
p703
I1486
sS'Fairy Tales'
p704
I348
sS'Education & Reference'
p705
I547
sS'Gambling'
p706
I903
sS'Arithmetic'
p707
I1457
sS'Camping & RVs'
p708
I914
sS'Social Activists'
p709
I891
sS'Ethics'
p710
I801
sS'Home & Community Care'
p711
I1414
sS'Farm Animals'
p712
I184
sS'Entertainment & Games'
p713
I438
sS'Playwriting'
p714
I1221
sS'Hymns & Hymnals'
p715
I1558
sS'Religious Buildings'
p716
I1317
sS'Parenting & Relationships'
p717
I297
sS'International Mystery & Crime'
p718
I497
sS'Trading Card Games'
p719
I1154
sS'Contemporary'
p720
I7
sS'London'
p721
I1040
sS"Manager's Guides to Computing"
p722
I1415
sS'Jewelry'
p723
I340
sS'Democracy'
p724
I1487
sS'West'
p725
I1155
sS'International'
p726
I857
sS'Wicca'
p727
I392
sS'Midwest'
p728
I1231
sS'Men'
p729
I862
sS'Southeast'
p730
I957
sS'Preventive Medicine'
p731
I1458
sS'Photo Essays'
p732
I490
sS'Ruby'
p733
I1335
sS'Projects'
p734
I1459
sS'Earth-Based Religions'
p735
I1167
sS'Senior Travel'
p736
I1394
sS'Language Arts'
p737
I731
sS'Long-Term Care'
p738
I1254
sS'Biological Sciences'
p739
I920
sS'Commentaries'
p740
I350
sS'Prayer'
p741
I453
sS'Smoothies'
p742
I113
sS'Arts, Music & Photography'
p743
I1583
sS'Angelology & Demonology'
p744
I802
sS'Belize'
p745
I1584
sS'Individual Artists'
p746
I904
sS'Insects & Spiders'
p747
I811
sS"Paul's Letters"
p748
I958
sS'Great Britain'
p749
I140
sS'Journalism & Nonfiction'
p750
I915
sS'Sermons'
p751
I832
sS'Pen & Ink'
p752
I916
sS'Bike Repair'
p753
I1299
sS'Board Games'
p754
I881
sS'Genitourinary & STDs'
p755
I945
sS'Genre Fiction'
p756
I1318
sS'Sudoku'
p757
I1573
sS'Historic Preservation'
p758
I1156
sS'Motorcycles'
p759
I727
sS'Civil Rights'
p760
I1460
sS'Graphic Design'
p761
I1074
sS'Classics & Allegories'
p762
I232
sS'Aeronautics & Space'
p763
I815
sS'Welding'
p764
I1488
sS'Sports Psychology'
p765
I1461
sS'Cultural Heritage'
p766
I199
sS'South Atlantic'
p767
I1516
sS'Systems & Planning'
p768
I716
sS'Rock Climbing'
p769
I1157
sS'Japanese & Haiku'
p770
I851
sS'Mathematics'
p771
I1163
sS'Veterans'
p772
I606
sS'Algebra'
p773
I748
sS'Consciousness & Thought'
p774
I629
sS'Law'
p775
I702
sS'Self-Esteem & Self-Respect'
p776
I462
sS'Naval'
p777
I552
sS'Parent Participation'
p778
I841
sS'Country'
p779
I892
sS'Marriage & Family'
p780
I926
sS"Children's Health"
p781
I420
sS'Breeds'
p782
I226
sS'Decision-Making & Problem Solving'
p783
I409
sS'Amish'
p784
I43
sS'Mexican'
p785
I548
sS'Myanmar'
p786
I1585
sS'Modern'
p787
I1319
sS'Direct'
p788
I91
sS'Hardware'
p789
I222
sS'Agronomy'
p790
I1395
sS'History & Philosophy'
p791
I980
sS'Other Diets'
p792
I38
sS'Caribbean & West Indies'
p793
I1434
sS'Beginner Readers'
p794
I207
sS'Parents'
p795
I258
sS'Prayerbooks'
p796
I327
sS'Bed & Breakfasts'
p797
I1232
sS'Trivia'
p798
I433
sS'Potpourri'
p799
I1463
sS'Rites & Ceremonies'
p800
I1270
sS'Meditations'
p801
I332
sS'International & World Politics'
p802
I1255
sS'Trees'
p803
I696
sS'Urantia'
p804
I1222
sS'Training'
p805
I125
sS'Arts & Humanities'
p806
I1320
sS'Microelectronics'
p807
I1464
sS'Entertaining & Holidays'
p808
I149
sS'Hypnosis'
p809
I553
sS'City Life'
p810
I1465
sS'Scuba'
p811
I919
sS'Seasonal'
p812
I308
sS'Nursing'
p813
I1300
sS'Juice'
p814
I103
sS'Business & Money'
p815
I203
sS'Quantum Theory'
p816
I824
sS'Breakfast'
p817
I179
sS'Vitamins & Supplements'
p818
I434
sS'Churches & Church Leadership'
p819
I893
sS'Electronic Documents'
p820
I185
sS'Interest'
p821
I1489
sS'Paleontology'
p822
I1594
sS'Cultural'
p823
I464
sS'Abuse'
p824
I625
sS'Rhetoric'
p825
I1466
sS'Girls & Women'
p826
I159
sS'Cleaning, Caretaking & Relocating'
p827
I51
sS'Occupational & Organizational'
p828
I969
sS'Crop Science'
p829
I1271
sS'Zoos'
p830
I390
sS'Spine-Chilling Horror'
p831
I115
sS'Programming & App Development'
p832
I780
sS'Project Management'
p833
I616
sS'Drama'
p834
I35
sS'Concordances'
p835
I742
sS'Ballroom'
p836
I1256
sS'Commercial Policy'
p837
I1423
sS'Bullies'
p838
I298
sS'Film & Video Art'
p839
I640
sS'Lions, Tigers & Leopards'
p840
I224
sS'Gluten Free'
p841
I110
sS'Obsessive Compulsive Disorder (OCD)'
p842
I753
sS'Cooking for One'
p843
I471
sS'Architecture'
p844
I774
sS'Spiritual Warfare'
p845
I386
sS'Yoga'
p846
I239
sS'Middle Eastern'
p847
I1435
sS'Political Science'
p848
I1104
sS'Book Making & Binding'
p849
I975
sS'Dolls'
p850
I599
sS'Europe'
p851
I138
sS'New Thought'
p852
I142
sS'Quizzes'
p853
I300
sS'Laboratory Medicine'
p854
I833
sS'Baseball'
p855
I389
sS'Russian'
p856
I596
sS'Mysticism'
p857
I465
sS'Branding & Logo Design'
p858
I1233
sS'Business Writing'
p859
I124
sS'Hispanic & Latino'
p860
I1174
sS'Criticism'
p861
I419
sS'Crisis Management'
p862
I863
sS'Philippines'
p863
I950
sS'Instruction'
p864
I743
sS'Americas'
p865
I244
sS'Kosher'
p866
I1205
sS'American'
p867
I265
sS'Sexuality'
p868
I240
sS'Doctors & Medicine'
p869
I557
sS'Curricula'
p870
I1206
sS'Climatology'
p871
I1027
sS'Motivation & Self-Improvement'
p872
I139
sS'Broadway & Musicals'
p873
I842
sS'Production & Operations'
p874
I1287
sS'Westerns'
p875
I24
sS'Jobs & Careers'
p876
I460
sS'Prosthodontics'
p877
I1272
sS'Budgeting & Money Management'
p878
I72
sS'Survival & Emergency Preparedness'
p879
I927
sS'Home Repair'
p880
I787
sS'Classical & Early'
p881
I1147
sS'Meditation'
p882
I74
sS'Pentecostal'
p883
I535
sS'Episcopalian'
p884
I1559
sS'Style & Clothing'
p885
I1021
sS'Mixed-Media'
p886
I513
sS'Sword & Sorcery'
p887
I1490
sS'Video Games'
p888
I186
sS'Devotionals'
p889
I90
sS'Exports & Imports'
p890
I1526
sS'Erotica'
p891
I3
sS'Multiple Sclerosis'
p892
I1336
sS'Dreams'
p893
I468
sS'Archery'
p894
I1491
sS'Etiquette Guides & Advice'
p895
I601
sS'Fantasy & Magic'
p896
I30
sS'Police Procedurals'
p897
I888
sS'Hardware & Robotics'
p898
I1468
sS'Mexico'
p899
I710
sS'Exegesis & Hermeneutics'
p900
I1469
sS'Linux'
p901
I987
sS'Party Planning'
p902
I597
sS'Taoism'
p903
I679
sS'Salads'
p904
I168
sS'Film'
p905
I341
sS'Mystery & Suspense'
p906
I27
sS'Mountain Climbing'
p907
I529
sS'Middle East'
p908
I589
sS'Comic Books'
p909
I1355
sS'Marriage & Divorce'
p910
I988
sS'Confederacy'
p911
I1041
sS'Confectionary'
p912
I877
sS'Philosophy'
p913
I444
sS'Parenting Boys'
p914
I644
sS'Financial Aid'
p915
I1234
sS'Weight Watchers'
p916
I1067
sS'Yaoi, Gay & Lesbian'
p917
I1321
sS'Social Services & Welfare'
p918
I641
sS'Victorian'
p919
I1436
sS'Football (American)'
p920
I793
sS'Conservatism & Liberalism'
p921
I617
sS'Savannah'
p922
I1376
sS'Information Theory'
p923
I781
sS'Raw'
p924
I270
sS'Money & Monetary Policy'
p925
I579
sS'Hoaxes & Deceptions'
p926
I872
sS'Rap'
p927
I1377
sS'Scottish'
p928
I661
sS'Ethnic Studies'
p929
I1094
sS'Non-US Legal Systems'
p930
I1148
sS'User Experience & Usability'
p931
I1470
sS'Stewardship'
p932
I693
sS'Sports'
p933
I40
sS'AIDS'
p934
I1471
sS'Single Author'
p935
I14
sS'Essays'
p936
I75
sS'Wine Pairing'
p937
I989
sS'Pottery & Ceramics'
p938
I1560
sS'Reproductive Medicine & Technology'
p939
I1574
sS'Astronomy'
p940
I414
sS'Toilet Training'
p941
I1120
sS'United States'
p942
I17
sS'Cartoons'
p943
I744
sS'Historical'
p944
I9
sS'History & Criticism'
p945
I399
sS'Investments'
p946
I504
sS'Western & Frontier'
p947
I73
sS'Cars, Trains & Things That Go'
p948
I816
sS'Boston'
p949
I1437
sS'Higher & Continuing Education'
p950
I962
sS'Fatherhood'
p951
I431
sS'Real Estate'
p952
I527
sS'Urban & Land Use Planning'
p953
I1177
sS'Linguistics'
p954
I82
sS'Performing Arts'
p955
I275
sS'Abdominal'
p956
I402
sS'Indian'
p957
I615
sS'Heavy Metal'
p958
I1356
sS'Rationalism'
p959
I1561
sS'Religion & Spirituality'
p960
I274
sS'Personality'
p961
I408
sS'Transportation'
p962
I1034
sS'Models'
p963
I1599
sS'Rocks & Minerals'
p964
I1095
sS'Digital Design'
p965
I1035
sS'Hospitality, Travel & Tourism'
p966
I1235
sS'Evangelism'
p967
I759
sS'Japanese Gardens'
p968
I1036
sS'Dehydrators'
p969
I1472
sS'Atkins Diet'
p970
I662
sS'House Plants'
p971
I735
sS'Parks & Campgrounds'
p972
I493
sS'Eckankar'
p973
I1105
sS'Romance'
p974
I8
sS'Information Systems'
p975
I1416
sS'Cancer'
p976
I378
sS'Elementary'
p977
I1438
sS'Word Games'
p978
I626
sS'Martial Arts'
p979
I627
sS'Sociology'
p980
I817
sS'Creativity'
p981
I262
sS'Outsourcing'
p982
I1396
sS'Brunch & Tea'
p983
I563
sS'Quick & Easy'
p984
I76
sS'Siblings'
p985
I574
sS'Classic Cars'
p986
I1301
sS'Diseases'
p987
I1207
sS'Alternate History'
p988
I131
sS'Drug Dependency'
p989
I384
sS'Coins & Medals'
p990
I1121
sS'Fashion Design'
p991
I380
sS'Germany'
p992
I305
sS'Christian Denominations & Sects'
p993
I686
sS'Dark Fantasy'
p994
I22
sS'Communications'
p995
I180
sS'Crafts for Children'
p996
I352
sS'Vocal'
p997
I1527
sS'Bridge'
p998
I1417
sS'Compulsive Behavior'
p999
I463
sS'Egypt'
p1000
I594
sS'Zen'
p1001
I649
sS"Children's Books"
p1002
I32
sS'Baskets'
p1003
I938
sS'Chronic Fatigue Syndrome & Fibromyalgia'
p1004
I410
sS'Fishing'
p1005
I970
sS'PCs'
p1006
I1227
sS'Salvation Theory'
p1007
I794
sS'Interviewing'
p1008
I1378
sS'Cats, Lions & Tigers'
p1009
I1191
sS'French'
p1010
I838
sS'Worship & Devotion'
p1011
I630
sS'Television & Video'
p1012
I1528
sS'Magic'
p1013
I1273
sS'Gown'
p1014
I472
sS'Journal Writing'
p1015
I1000
sS'Needlework'
p1016
I963
sS'Thanksgiving'
p1017
I607
sS'Mashups'
p1018
I281
sS'Ancient World'
p1019
I1473
sS'Bahrain, Kuwait, Oman, Qatar, United-Arab-Emirates & Yemen'
p1020
I1492
sS'Rabbits'
p1021
I382
sS'Eschatology'
p1022
I458
sS'Themes'
p1023
I1274
sS'Tarot'
p1024
I1379
sS'Interpersonal Relations'
p1025
I135
sS"Men's Issues"
p1026
I1208
sS'PHP'
p1027
I1357
sS'Networks'
p1028
I1302
sS'Social Scientists & Psychologists'
p1029
I712
sS'Education & Training'
p1030
I825
sS'Adult Children of Alcoholics'
p1031
I1122
sS'Workbooks'
p1032
I1236
sS'France'
p1033
I669
sS'Roses'
p1034
I990
sS'Geometry & Topology'
p1035
I1338
sS'Self-Esteem'
p1036
I170
sS'Family Life'
p1037
I306
sS'Biographies & History'
p1038
I996
sS'Vietnam War'
p1039
I342
sS'Lutheran'
p1040
I1143
sS'Programming'
p1041
I882
sS'Whole Foods'
p1042
I1123
sS'Colonial Period'
p1043
I312
sS'Health Policy'
p1044
I1192
sS'Workplace'
p1045
I613
sS'African'
p1046
I1540
sS'Mental Health'
p1047
I204
sS'Digital Music - General'
p1048
I1474
sS'Special Needs'
p1049
I1209
sS'Cast Iron'
p1050
I739
sS'Fish'
p1051
I254
sS'Clay Crafts'
p1052
I1275
sS'Counseling'
p1053
I479
sS'Happiness'
p1054
I69
sS'Ethnomusicology'
p1055
I1529
sS'Nurse-Patient Relations'
p1056
I1358
sS'Panama'
p1057
I1106
sS'Farm Life'
p1058
I1237
sS'War'
p1059
I31
sS'Calculus'
p1060
I1081
sS'Museum Studies & Museology'
p1061
I1475
sS'Australia & New Zealand'
p1062
I895
sS'Macs'
p1063
I1096
sS'Guitar'
p1064
I483
sS'Networks, Protocols & APIs'
p1065
I1530
sS'Christian Living'
p1066
I118
sS'Women'
p1067
I141
sS'Ab Workouts'
p1068
I1082
sS'Dictionaries & Encyclopedias'
p1069
I484
sS'Instructional'
p1070
I286
sS"Children's Cookbooks"
p1071
I426
sS'Activities, Crafts & Games'
p1072
I1493
sS'Military Technology'
p1073
I1097
sS'Child Psychology'
p1074
I707
sS'Software'
p1075
I587
sS'Game Programming'
p1076
I1124
sS'Buying & Selling Homes'
p1077
I782
sS"Women's Health, Obstetrics & Gynecology"
p1078
I1531
sS'Italy'
p1079
I584
sS'Desktop Publishing'
p1080
I657
sS'Memoirs'
p1081
I29
sS'Writing Skills'
p1082
I80
sS'Natural Foods'
p1083
I92
sS'Strategy'
p1084
I473
sS'Mysteries'
p1085
I313
sS'Easter'
p1086
I536
sS'Adventure'
p1087
I130
sS'Puns & Wordplay'
p1088
I1397
sS'Organic'
p1089
I122
sS"Women's Fiction"
p1090
I66
sS'Faith'
p1091
I368
sS'Anarchism'
p1092
I1257
sS'Public Speaking'
p1093
I864
sS'Coming of Age'
p1094
I6
sS'Movies'
p1095
I1028
sS'Inspirational'
p1096
I317
sS'Attention Deficit & Attention Deficit Hyperactivity Disorders'
p1097
I976
sS'Languages & Tools'
p1098
I585
sS'Distribution & Warehouse Management'
p1099
I1494
sS"Women's Issues"
p1100
I534
sS'New Age'
p1101
I569
sS'Women Sleuths'
p1102
I951
sS'Historical Fiction'
p1103
I167
sS'Internet'
p1104
I1210
sS'Comedy'
p1105
I104
sS'Rich & Famous'
p1106
I147
sS'1800s'
p1107
I1223
sS'Theory'
p1108
I827
sS'Football'
p1109
I1245
sS'Chocolate'
p1110
I387
sS'Water Gardens & Ponds'
p1111
I1398
sS'Ethnic'
p1112
I1339
sS'Textile & Costume'
p1113
I675
sS'Stretching'
p1114
I1006
sS'Weight Loss'
p1115
I39
sS'Small Business & Entrepreneurship'
p1116
I333
sS'Latin America'
p1117
I1586
sS'Death & Grief'
p1118
I461
sS'Methodist'
p1119
I1381
sS'India & South Asia'
p1120
I917
sS'Eating Disorders'
p1121
I456
sS'Epistemology'
p1122
I1178
sS'Management'
p1123
I335
sS'Java'
p1124
I1068
sS'Appetizers'
p1125
I318
sS'Paraguay & Uruguay'
p1126
I1595
sS'Pacific Rim'
p1127
I1189
sS'Beauty, Grooming & Style'
p1128
I404
sS'Instruction Methods'
p1129
I834
sS'Retailing'
p1130
I1303
sS'Antiques & Collectibles'
p1131
I1238
sS'Growing Up & Facts of Life'
p1132
I813
sS'Aviation'
p1133
I338
sS'Shamanism'
p1134
I694
sS'Lesbian'
p1135
I36
sS'Administrative Law'
p1136
I1495
sS'Roulette'
p1137
I1125
sS'Economics'
p1138
I1007
sS'Nature Writing & Essays'
p1139
I865
sS'Clergy'
p1140
I1098
sS'Fruits'
p1141
I394
sS'Russia'
p1142
I1109
sS'Project Planning & Management'
p1143
I1562
sS'Romania'
p1144
I1099
sS'Thrillers & Suspense'
p1145
I540
sS'Fundamentalism'
p1146
I852
sS'Telemarketing'
p1147
I1008
sS'Bears'
p1148
I252
sS'Mount St. Helens'
p1149
I1347
sS'Vocational'
p1150
I1258
sS'Urban & Regional'
p1151
I1224
sS'Speech'
p1152
I828
sS'Cultural Policy'
p1153
I1596
sS'Racing'
p1154
I1225
sS'Human Figure'
p1155
I1286
sS'Technothrillers'
p1156
I1532
sS'Substance Abuse'
p1157
I287
sS'Seventh-Day Adventist'
p1158
I1158
sS'Channeling'
p1159
I260
sS'Smoking'
p1160
I337
sS'Baptist'
p1161
I1057
sS'Prehistoric'
p1162
I1211
sS'Animals'
p1163
I57
sS'Disabilities'
p1164
I818
sS'Holocaust'
p1165
I421
sS'Orphans & Foster Homes'
p1166
I1276
sS'Piloting & Flight Instruction'
p1167
I703
sS'Immune Systems'
p1168
I523
sS'Native American'
p1169
I97
sS'Irish'
p1170
I655
sS'Office'
p1171
I1304
sS'Romantic Comedy'
p1172
I530
sS'New Baby'
p1173
I676
sS'Africa'
p1174
I907
sS'Books'
p1175
I1
sS'Magic & Illusion'
p1176
I651
sS'Bible Study & Reference'
p1177
I633
sS'World Literature'
p1178
I353
sS'Devotional'
p1179
I1322
sS'Creativity & Genius'
p1180
I618
sS'Parallel Processing Computers'
p1181
I1399
sS'Terrorism'
p1182
I634
sS'Artists, Architects & Photographers'
p1183
I878
sS'Murder'
p1184
I721
sS'Educational & Nonfiction'
p1185
I775
sS'Logic & Brain Teasers'
p1186
I349
sS'Executive Branch'
p1187
I202
sS'Opera'
p1188
I1533
sS'Multilevel'
p1189
I447
sS'Humor & Entertainment'
p1190
I1193
sS'Memory Improvement'
p1191
I359
sS'Arthurian'
p1192
I708
sS'Time Travel'
p1193
I439
sS'State & Local'
p1194
I233
sS'Hydrology'
p1195
I1049
sS'Skills'
p1196
I354
sS'Mentally Disabled'
p1197
I1159
sS'Internal Medicine'
p1198
I1083
sS'Movements & Periods'
p1199
I446
sS'Tao Te Ching'
p1200
I1575
sS'Weddings'
p1201
I1001
sS'Schools & Teaching'
p1202
I242
sS'Asian'
p1203
I645
sS'Design & Construction'
p1204
I632
sS'Homeschooling'
p1205
I165
sS'Words, Language & Grammar'
p1206
I610
sS'Motivational'
p1207
I54
sS'Neuropsychology'
p1208
I522
sS'Landscapes & Seascapes'
p1209
I1576
sS'Boating'
p1210
I740
sS'Business'
p1211
I253
sS'Bonds'
p1212
I1168
sS'Actors & Entertainers'
p1213
I77
sS'Words'
p1214
I658
sS'Barbecuing & Grilling'
p1215
I301
sS'Container Gardening'
p1216
I163
sS'Canadian'
p1217
I1400
sS'Graphics & Multimedia'
p1218
I549
sS'Mice, Hamsters, Guinea Pigs & Squirrels'
p1219
I280
sS'Windows 8'
p1220
I506
sS'Leathercrafts'
p1221
I1084
sS'Classics'
p1222
I28
sS'Paganism'
p1223
I981
sS'Nervous System'
p1224
I770
sS'Turkey'
p1225
I1382
sS'Paleo'
p1226
I200
sS'Antietam'
p1227
I1534
sS'Counseling & Recovery'
p1228
I1139
sS'Vegetables'
p1229
I155
sS'Equipment'
p1230
I515
sS'Country Life'
p1231
I1069
sS'Basic Concepts'
p1232
I1075
sS'Trivia & Fun Facts'
p1233
I896
sS'Occult'
p1234
I13
sS'Israel & Palestine'
p1235
I628
sS'Scrapbooking'
p1236
I586
sS'Stepfamilies'
p1237
I1042
sS'Biographies'
p1238
I448
sS'Dictionaries'
p1239
I322
sS'Cosmology'
p1240
I1383
sS'Greek'
p1241
I588
sS'Marriage'
p1242
I339
sS'Resumes'
p1243
I659
sS'Commentary & Opinion'
p1244
I883
sS'Behavioral Sciences'
p1245
I1476
sS'Caribbean & West Indian'
p1246
I952
sS'Chinese'
p1247
I933
sS'Religious'
p1248
I83
sS'Energy Healing'
p1249
I238
sS'Mountain'
p1250
I1340
sS'Rock'
p1251
I374
sS'Ships'
p1252
I1076
sS'Costa Rica'
p1253
I1496
sS'Hard-Boiled'
p1254
I604
sS'How Things Work'
p1255
I1029
sS'Distance & Online Learning'
p1256
I1179
sS'Children & Teens'
p1257
I1341
sS'Burgers & Sandwiches'
p1258
I418
sS'Information Management'
p1259
I819
sS'Archaeology'
p1260
I835
sS'Letters & Correspondence'
p1261
I855
sS'Theme Parks'
p1262
I1288
sS'Electromagnetism'
p1263
I1212
sS'Sailing'
p1264
I717
sS'First Nations'
p1265
I1535
sS'Denmark'
p1266
I1401
sS'Theory of Computing'
p1267
I1259
sS'Energy Production & Extraction'
p1268
I502
sS'Trains'
p1269
I820
sS'Regional & International'
p1270
I771
sS'New Business Enterprises'
p1271
I636
sS'Revolution & Founding'
p1272
I425
sS'Marine Biology'
p1273
I897
sS'Gardening & Landscape Design'
p1274
I516
sS'Dysfunctional Relationships'
p1275
I182
sS'Pneumatology'
p1276
I1016
sS'Questions & Answers'
p1277
I699
sS'Injury Prevention'
p1278
I496
sS'Nationalism'
p1279
I1497
sS'Pilates'
p1280
I977
sS'Camping'
p1281
I220
sS'Applied Psychology'
p1282
I309
sS'Cats'
p1283
I78
sS'Goddesses'
p1284
I1140
sS'Australian'
p1285
I642
sS'Nature & Ecology'
p1286
I1149
sS'Composition'
p1287
I1277
sS'Political Freedom'
p1288
I1085
sS'Pharmacology'
p1289
I608
sS'Acting & Auditioning'
p1290
I558
sS'Christmas'
p1291
I56
sS'Prophecies'
p1292
I477
sS'Economic Conditions'
p1293
I480
sS'Shows'
p1294
I1289
sS'Diets & Weight Loss'
p1295
I344
sS'Native North & South Americans'
p1296
I1439
sS'Sports & Outdoors'
p1297
I1342
sS'Canning & Preserving'
p1298
I86
sS'Technical'
p1299
I1160
sS'Travelers & Explorers'
p1300
I197
sS'Dating & Relationships'
p1301
I466
sS'British'
p1302
I400
sS'Domestic Relations'
p1303
I1498
sS'Japan'
p1304
I1111
sS'Credit Ratings & Repair'
p1305
I1239
sS'Running & Jogging'
p1306
I600
sS'Weather'
p1307
I728
sS'Lung & Respiratory Diseases'
p1308
I429
sS'Greece'
p1309
I670
sS'Zen Philosophy'
p1310
I718
sS'Cycling'
p1311
I701
sS'Microbiology'
p1312
I1536
sS'Supernatural'
p1313
I559
sS'Ministry & Evangelism'
p1314
I711
sS'Humor & Satire'
p1315
I652
sS'Kidnapping'
p1316
I1194
sS'Exploration & Discoveries'
p1317
I803
sS'Catalogs & Directories'
p1318
I566
sS'Blackjack'
p1319
I978
sS'Dye'
p1320
I1161
sS'Afghan War'
p1321
I377
sS'Communism & Socialism'
p1322
I524
sS'Adobe Photoshop'
p1323
I1440
sS'White Collar Crime'
p1324
I884
sS'Almanacs & Yearbooks'
p1325
I1563
sS'Reincarnation'
p1326
I379
sS'Encyclopedias'
p1327
I991
sS'Communicative Disorders'
p1328
I982
sS'Knots, Macrame & Rope Work'
p1329
I1402
sS'Folklore & Mythology'
p1330
I677
sS'Statistics'
p1331
I1359
sS'Science Fiction & Fantasy'
p1332
I1477
sS'Witnesses'
p1333
I1050
sS'Bipolar'
p1334
I653
sS"Women's Studies"
p1335
I846
sS'Criticism & Theory'
p1336
I764
sS'Cookbooks, Food & Wine'
p1337
I93
sS'Ethnic & National'
p1338
I208
sS'Model Trains'
p1339
I1141
sS'China'
p1340
I1086
sS'Essays & Commentary'
p1341
I1360
sS'Biographies & Memoirs'
p1342
I121
sS'Arts & Photography'
p1343
I440
sS'Student Life'
p1344
I745
sS'Short Story Collections'
p1345
I216
sS'West South Central'
p1346
I1017
sS'Drawing'
p1347
I428
sS'Card Games'
p1348
I1499
sS'Money & Saving'
p1349
I1051
sS'Guides'
p1350
I114
sS'Gothic'
p1351
I494
sS'Health Care Delivery'
p1352
I1215
sS'Landscape'
p1353
I762
sS'Bar Examination'
p1354
I1384
sS'Administration'
p1355
I1052
sS'Peripherals'
p1356
I953
sS'General Broadcasting'
p1357
I1577
sS'Electrical'
p1358
I1260
sS'Latin American'
p1359
I1537
sS'Collections & Anthologies'
p1360
I41
sS'Wine & Spirits'
p1361
I1126
sS'North'
p1362
I1169
sS'Adolescent Psychology'
p1363
I1418
sS'Eastern'
p1364
I406
sS'Tribal & Ethnic'
p1365
I1305
sS'Adult'
p1366
I1110
sS'Web Services'
p1367
I921
sS'Family Activities'
p1368
I413
sS'Stocks'
p1369
I401
sS'Rice & Grains'
p1370
I310
sS'Holidays & Celebrations'
p1371
I940
sS'Irritable Bowel Syndrome'
p1372
I1170
sS'Mice, Hamsters & Guinea Pigs'
p1373
I836
sS'Herbs, Spices & Condiments'
p1374
I277
sS'Popes & the Vatican'
p1375
I663
sS'Classical'
p1376
I934
sS'Portraits'
p1377
I713
sS'Spirituality'
p1378
I210
sS'Economic Policy & Development'
p1379
I1101
sS'Travel Maps'
p1380
I968
sS'Ancient Civilizations'
p1381
I415
sS'Aging'
p1382
I173
sS'Business of Art'
p1383
I1009
sS'College Entrance'
p1384
I1306
sS'Intelligence & Espionage'
p1385
I405
sS'Other'
p1386
I467
sS'Discipleship'
p1387
I972
sS'Banks & Banking'
p1388
I776
sS'Bovine Medicine'
p1389
I1441
sS'Eye Problems'
p1390
I722
sS'Reform & Policy'
p1391
I788
sS'Dogs'
p1392
I48
sS'Blogging & Blogs'
p1393
I229
sS'Wisdom Literature'
p1394
I789
sS'Healing'
p1395
I94
sS'Serial Killers'
p1396
I214
sS'Decorating'
p1397
I162
sS'Fairy Tales, Folk Tales & Myths'
p1398
I87
sS'Death & Dying'
p1399
I760
sS'Pencil'
p1400
I1131
sS'College Guides'
p1401
I1478
sS'Scientology'
p1402
I1114
sS'Grief & Bereavement'
p1403
I517
sS'Commodities'
p1404
I560
sS'Games'
p1405
I259
sS'Wok Cookery'
p1406
I941
sS"Men's Grooming & Style"
p1407
I723
sS'Free Will & Determinism'
p1408
I683
sS'Alligators & Crocodiles'
p1409
I700
sS'Family Saga'
p1410
I18
sS'Prague'
p1411
I1261
sS'Publishing & Books'
p1412
I290
sS'True Crime'
p1413
I151
sS'Korean War'
p1414
I1385
sS'Dementia'
p1415
I366
sS'Single Women'
p1416
I1419
sS'Operating Systems'
p1417
I1538
sS'Paris'
p1418
I1323
sS'Ecuador & Galapagos Islands'
p1419
I866
sS'Religion'
p1420
I525
sS'Oil Painting'
p1421
I1171
sS'Public'
p1422
I1479
sS'Math'
p1423
I1597
sS'Care & Health'
p1424
I821
sS'Colored Pencil'
p1425
I1324
sS'Contemporary Women'
p1426
I4
sS'Developmental Psychology'
p1427
I959
sS'Whiskey'
p1428
I1325
sS'Stories'
p1429
I1053
sS'Fitness'
p1430
I1539
sS'Popular'
p1431
I499
sS'Fertility'
p1432
I946
sS'Public Affairs & Administration'
p1433
I355
sS'Italian'
p1434
I459
sS'Federal Jurisdiction'
p1435
I960
sS'Murder & Mayhem'
p1436
I70
sS'Religion, Politics & State'
p1437
I777
sS'Investing'
p1438
I395
sS'Public Finance'
p1439
I1420
sS'Adoption'
p1440
I576
sS'Pastoral Resources'
p1441
I889
sS'Skin Care'
p1442
I971
sS'Adult & Continuing Education'
p1443
I371
sS'Experimental Methods'
p1444
I885
sS'Client-Server Systems'
p1445
I1087
sS'Trucks & Vans'
p1446
I1018
sS'Landscapes'
p1447
I1088
sS'Emergency'
p1448
I1100
sS'Sales & Selling'
p1449
I221
sS'Probability & Statistics'
p1450
I874
sS'Circus'
p1451
I992
sS'Good & Evil'
p1452
I1195
sS'Photojournalism'
p1453
I1446
sS'Parenting Girls'
p1454
I1162
sS'Fiction'
p1455
I58
sS'Music'
p1456
I403
sS'Crafts & Hobbies'
p1457
I181
sS'General & Reference'
p1458
I1600
sS'Social Sciences'
p1459
I689
sS'Conspiracies'
p1460
I1308
sS'Glass & Glassware'
p1461
I590
sS'Systems Analysis & Design'
p1462
I1588
sS'Editing'
p1463
I487
sS'Breast Cancer'
p1464
I1142
sS'Company Profiles'
p1465
I910
sS'Sleep Disorders'
p1466
I213
sS'Personal Hygiene'
p1467
I671
sS'Chiropractic'
p1468
I1386
sS'New Testament'
p1469
I326
sS'Jewish American'
p1470
I295
sS'Fundamentals & Skills'
p1471
I1442
sS'Alternative Medicine'
p1472
I100
sS'Techniques'
p1473
I1564
sS'Civics & Citizenship'
p1474
I1043
sS'Anglican'
p1475
I1290
sS'Illness'
p1476
I1196
sS'Gardening'
p1477
I1443
sS'Popular Culture'
p1478
I898
sS'Halloween'
p1479
I230
sS'General'
p1480
I19
sS'Preaching'
p1481
I1541
sS'Skiing'
p1482
I1213
sS'Natural Resources'
p1483
I1070
sS'Literary'
p1484
I23
sS'Low Carbohydrate'
p1485
I98
sS'Prejudice & Racism'
p1486
I1077
sS'Chess'
p1487
I570
sS'Inspirational & Religious'
p1488
I925
sS'Hinduism'
p1489
I684
sS'Outdoor Cooking'
p1490
I507
sS'Viking'
p1491
I858
sS'Social Media How-to'
p1492
I544
sS'Canon Law'
p1493
I1589
sS'Fish & Aquariums'
p1494
I541
sS'Safety & First Aid'
p1495
I299
sS'Mutual Funds'
p1496
I719
sS'Activity Books'
p1497
I62
sS'Chapter Books'
p1498
I412
sS'Potatoes'
p1499
I550
sS'Medical'
p1500
I50
sS'National & International Security'
p1501
I1127
sS'Emotions & Feelings'
p1502
I245
sS'Literary & Religious'
p1503
I1361
sS'Norse'
p1504
I478
sS'Fantasy'
p1505
I26
sS'Meats'
p1506
I255
sS'Literature & Fiction'
p1507
I2
sS'U.S. Regional'
p1508
I1337
sS'Gourmet'
p1509
I319
sS'Apes & Monkeys'
p1510
I417
sS'Emotions'
p1511
I243
sS'Ideologies & Doctrines'
p1512
I1578
sS'Gaming'
p1513
I942
sS'Addiction & Recovery'
p1514
I1542
sS'Turkish'
p1515
I1403
sS'Celebrities & TV Shows'
p1516
I1500
sS'Plumbing & Household Automation'
p1517
I1579
sS'Pigs'
p1518
I519
sS'Houses & Hotels'
p1519
I621
sS'By Climate'
p1520
I1501
sS'Food Counters'
p1521
I257
sS'Apologetics'
p1522
I554
sS'Toxicology'
p1523
I984
sS'Handwriting'
p1524
I1543
sS'Australia & Oceania'
p1525
I765
sS'Cartooning'
p1526
I555
sS'Metaphysics'
p1527
I521
sS'Cookies'
p1528
I152
sS'Fashion'
p1529
I288
sS'England'
p1530
I486
sS'Oil & Energy'
p1531
I1502
sS'Elephants'
p1532
I443
sS'Paranormal'
p1533
I289
sS'Desserts'
p1534
I123
sS'Study Guides'
p1535
I396
sS'Oceania'
p1536
I1291
sS'Customs & Traditions'
p1537
I1326
sS'Puzzles & Games'
p1538
I1180
sS'Industrial Design'
p1539
I1387
sS'Satire'
p1540
I52
sS'Aging Parents'
p1541
I672
sS'Lesson Planning'
p1542
I1590
sS'Purchasing & Buying'
p1543
I804
sS'Easter & Lent'
p1544
I698
sS'Biblical'
p1545
I1327
sS'Singapore'
p1546
I1388
sS'Political Advocacy'
p1547
I664
sS'Family Practice'
p1548
I1240
sS'Knitting & Crochet'
p1549
I191
sS'Futures'
p1550
I875
sS'Early Childhood'
p1551
I201
sS'Musculoskeletal Diseases'
p1552
I416
sS'Management & Leadership'
p1553
I495
sS'Christology'
p1554
I751
sS'Chemistry'
p1555
I1328
sS'Microsoft'
p1556
I1059
sS'Action & Adventure'
p1557
I5
sS'Medical Conditions & Diseases'
p1558
I799
sS'South America'
p1559
I1344
sS'Viruses'
p1560
I1010
sS'Medical History & Records'
p1561
I1389
sS'Crystals'
p1562
I1278
sS'Travel Writing'
p1563
I725
sS'Beverages & Wine'
p1564
I174
sS'Scientists'
p1565
I132
sS'Religious & Liturgical'
p1566
I822
sS"Valentine's Day"
p1567
I520
sS'Sea Adventures'
p1568
I84
sS'Study Skills'
p1569
I236
sS'Finance'
p1570
I95
sS'Vegan'
p1571
I279
sS'Child'
p1572
I749
sS'Quilts & Quilting'
p1573
I328
sS'Criticism & Essays'
p1574
I1181
sS'Bhagavad Gita'
p1575
I1172
sS'Detoxes & Cleanses'
p1576
I133
sS'Heart Disease'
p1577
I422
sS'Industrial'
p1578
I724
sS'Golf'
p1579
I528
sS'Baby Food'
p1580
I853
sS'Gettysburg'
p1581
I470
sS'Superheroes'
p1582
I99
sS'Holistic'
p1583
I345
sS'Spirits'
p1584
I1011
sS'Paper Ephemera'
p1585
I1022
sS'Electronics'
p1586
I1241
sS'Organizational Learning'
p1587
I1480
sS'Limericks & Humorous Verse'
p1588
I543
sS'Authorship'
p1589
I81
sS'Manufacturing'
p1590
I1404
sS'E-commerce'
p1591
I53
sS'Musical'
p1592
I1280
sS'South'
p1593
I423
sS'Humorous'
p1594
I1544
sS'Criticism & Interpretation'
p1595
I837
sS'Sleep'
p1596
I42
sS'Polar Regions'
p1597
I1150
sS'Spanish'
p1598
I695
sS'Shooting'
p1599
I690
sS'Free Enterprise'
p1600
I843
sS'Media Tie-In'
p1601
I1030
sS'Geography'
p1602
I1421
s.